target datalayout = "e-m:e-p270:32:32-p271:32:32-p272:64:64-i64:64-i128:128-f80:128-n8:16:32:64-S128"
target triple = "x86_64-pc-linux-gnu"

%struct._object = type { %union.anon, ptr }
%union.anon = type { i64 }
%struct.PyVarObject = type { %struct._object, i64 }
%struct.PyListObject = type { %struct.PyVarObject, ptr, i64 }
%struct.anon = type { i32, i32 }

; Function Attrs: alwaysinline nounwind uwtable
define internal void @Py_DECREF(ptr noundef %0) #4 {
  %2 = alloca ptr, align 8
  store ptr %0, ptr %2, align 8, !tbaa !36
  %3 = load ptr, ptr %2, align 8, !tbaa !36
  %4 = call i32 @_Py_IsImmortal(ptr noundef %3)
  %5 = icmp ne i32 %4, 0
  br i1 %5, label %6, label %7

6:                                                ; preds = %1
  br label %16

7:                                                ; preds = %1
  %8 = load ptr, ptr %2, align 8, !tbaa !36
  %9 = getelementptr inbounds nuw %struct._object, ptr %8, i32 0, i32 0
  %10 = getelementptr inbounds nuw %struct.anon, ptr %9, i32 0, i32 0
  %11 = load i32, ptr %10, align 8, !tbaa !37
  %12 = add i32 %11, -1
  store i32 %12, ptr %10, align 8, !tbaa !37
  %13 = icmp eq i32 %12, 0
  br i1 %13, label %14, label %16

14:                                               ; preds = %7
  %15 = load ptr, ptr %2, align 8, !tbaa !36
  call void @_Py_Dealloc(ptr noundef %15)
  br label %16

16:                                               ; preds = %6, %14, %7
  ret void
}

; Function Attrs: nounwind uwtable
define internal void @free_list_items(ptr noundef %0, i1 noundef zeroext %1) #0 {
  %3 = alloca ptr, align 8
  %4 = alloca i8, align 1
  store ptr %0, ptr %3, align 8, !tbaa !119
  %5 = zext i1 %1 to i8
  store i8 %5, ptr %4, align 1, !tbaa !143
  %6 = load ptr, ptr %3, align 8, !tbaa !119
  call void @PyMem_Free(ptr noundef %6)
  ret void
}

; Function Attrs: inlinehint nounwind uwtable
define internal void @Py_XDECREF(ptr noundef %0) #2 {
  %2 = alloca ptr, align 8
  store ptr %0, ptr %2, align 8, !tbaa !36
  %3 = load ptr, ptr %2, align 8, !tbaa !36
  %4 = icmp ne ptr %3, null
  br i1 %4, label %5, label %7

5:                                                ; preds = %1
  %6 = load ptr, ptr %2, align 8, !tbaa !36
  call void @Py_DECREF(ptr noundef %6)
  br label %7

7:                                                ; preds = %5, %1
  ret void
}

; Function Attrs: alwaysinline nounwind uwtable
define internal i32 @_Py_IsImmortal(ptr noundef %0) #4 {
  %2 = alloca ptr, align 8
  store ptr %0, ptr %2, align 8, !tbaa !36
  %3 = load ptr, ptr %2, align 8, !tbaa !36
  %4 = getelementptr inbounds nuw %struct._object, ptr %3, i32 0, i32 0
  %5 = getelementptr inbounds nuw %struct.anon, ptr %4, i32 0, i32 0
  %6 = load i32, ptr %5, align 8, !tbaa !37
  %7 = icmp slt i32 %6, 0
  %8 = zext i1 %7 to i32
  ret i32 %8
}

; Function Attrs: nounwind uwtable
define internal void @ensure_shared_on_resize(ptr noundef %0) #0 {
  %2 = alloca ptr, align 8
  store ptr %0, ptr %2, align 8, !tbaa !27
  ret void
}

; Function Attrs: inlinehint nounwind uwtable
define internal void @Py_SET_SIZE(ptr noundef %0, i64 noundef %1) #2 {
  %3 = alloca ptr, align 8
  %4 = alloca i64, align 8
  store ptr %0, ptr %3, align 8, !tbaa !27
  store i64 %1, ptr %4, align 8, !tbaa !26
  %5 = load i64, ptr %4, align 8, !tbaa !26
  %6 = load ptr, ptr %3, align 8, !tbaa !27
  %7 = getelementptr inbounds nuw %struct.PyVarObject, ptr %6, i32 0, i32 1
  store i64 %5, ptr %7, align 8, !tbaa !38
  ret void
}

; Function Attrs: nounwind uwtable
define internal void @list_clear_impl(ptr noundef %0, i1 noundef zeroext %1) #0 {
  %3 = alloca ptr, align 8
  %4 = alloca i8, align 1
  %5 = alloca ptr, align 8
  %6 = alloca i32, align 4
  %7 = alloca i64, align 8
  %8 = alloca i8, align 1
  store ptr %0, ptr %3, align 8, !tbaa !27
  %9 = zext i1 %1 to i8
  store i8 %9, ptr %4, align 1, !tbaa !143
  call void @llvm.lifetime.start.p0(i64 8, ptr %5) #8
  %10 = load ptr, ptr %3, align 8, !tbaa !27
  %11 = getelementptr inbounds nuw %struct.PyListObject, ptr %10, i32 0, i32 1
  %12 = load ptr, ptr %11, align 8, !tbaa !28
  store ptr %12, ptr %5, align 8, !tbaa !119
  %13 = load ptr, ptr %5, align 8, !tbaa !119
  %14 = icmp eq ptr %13, null
  br i1 %14, label %15, label %16

15:                                               ; preds = %2
  store i32 1, ptr %6, align 4
  br label %37

16:                                               ; preds = %2
  call void @llvm.lifetime.start.p0(i64 8, ptr %7) #8
  %17 = load ptr, ptr %3, align 8, !tbaa !27
  %18 = call i64 @Py_SIZE(ptr noundef %17)
  store i64 %18, ptr %7, align 8, !tbaa !26
  %19 = load ptr, ptr %3, align 8, !tbaa !27
  call void @Py_SET_SIZE(ptr noundef %19, i64 noundef 0)
  %20 = load ptr, ptr %3, align 8, !tbaa !27
  %21 = getelementptr inbounds nuw %struct.PyListObject, ptr %20, i32 0, i32 1
  store ptr null, ptr %21, align 8, !tbaa !28
  %22 = load ptr, ptr %3, align 8, !tbaa !27
  %23 = getelementptr inbounds nuw %struct.PyListObject, ptr %22, i32 0, i32 2
  store i64 0, ptr %23, align 8, !tbaa !33
  br label %24

24:                                               ; preds = %28, %16
  %25 = load i64, ptr %7, align 8, !tbaa !26
  %26 = add i64 %25, -1
  store i64 %26, ptr %7, align 8, !tbaa !26
  %27 = icmp sge i64 %26, 0
  br i1 %27, label %28, label %33

28:                                               ; preds = %24
  %29 = load ptr, ptr %5, align 8, !tbaa !119
  %30 = load i64, ptr %7, align 8, !tbaa !26
  %31 = getelementptr ptr, ptr %29, i64 %30
  %32 = load ptr, ptr %31, align 8, !tbaa !36
  call void @Py_XDECREF(ptr noundef %32)
  br label %24, !llvm.loop !177

33:                                               ; preds = %24
  call void @llvm.lifetime.start.p0(i64 1, ptr %8) #8
  store i8 0, ptr %8, align 1, !tbaa !143
  %34 = load ptr, ptr %5, align 8, !tbaa !119
  %35 = load i8, ptr %8, align 1, !tbaa !143, !range !144, !noundef !145
  %36 = trunc i8 %35 to i1
  call void @free_list_items(ptr noundef %34, i1 noundef zeroext %36)
  call void @llvm.lifetime.end.p0(i64 1, ptr %8) #8
  call void @llvm.lifetime.end.p0(i64 8, ptr %7) #8
  store i32 0, ptr %6, align 4
  br label %37

37:                                               ; preds = %33, %15
  call void @llvm.lifetime.end.p0(i64 8, ptr %5) #8
  %38 = load i32, ptr %6, align 4
  switch i32 %38, label %40 [
    i32 0, label %39
    i32 1, label %39
  ]

39:                                               ; preds = %37, %37
  ret void

40:                                               ; preds = %37
  unreachable
}

; Function Attrs: inlinehint nounwind uwtable
define internal i64 @Py_SIZE(ptr noundef %0) #2 {
  %2 = alloca ptr, align 8
  store ptr %0, ptr %2, align 8, !tbaa !36
  %3 = load ptr, ptr %2, align 8, !tbaa !36
  %4 = getelementptr inbounds nuw %struct.PyVarObject, ptr %3, i32 0, i32 1
  %5 = load i64, ptr %4, align 8, !tbaa !38
  ret i64 %5
}

; Function Attrs: inlinehint nounwind uwtable
define internal void @_Py_memory_repeat(ptr noundef %0, i64 noundef %1, i64 noundef %2) #2 {
  %4 = alloca ptr, align 8
  %5 = alloca i64, align 8
  %6 = alloca i64, align 8
  %7 = alloca i64, align 8
  %8 = alloca i64, align 8
  store ptr %0, ptr %4, align 8, !tbaa !161
  store i64 %1, ptr %5, align 8, !tbaa !26
  store i64 %2, ptr %6, align 8, !tbaa !26
  call void @llvm.lifetime.start.p0(i64 8, ptr %7) #8
  %9 = load i64, ptr %6, align 8, !tbaa !26
  store i64 %9, ptr %7, align 8, !tbaa !26
  br label %10

10:                                               ; preds = %26, %3
  %11 = load i64, ptr %7, align 8, !tbaa !26
  %12 = load i64, ptr %5, align 8, !tbaa !26
  %13 = icmp slt i64 %11, %12
  br i1 %13, label %14, label %36

14:                                               ; preds = %10
  call void @llvm.lifetime.start.p0(i64 8, ptr %8) #8
  %15 = load i64, ptr %7, align 8, !tbaa !26
  %16 = load i64, ptr %5, align 8, !tbaa !26
  %17 = load i64, ptr %7, align 8, !tbaa !26
  %18 = sub i64 %16, %17
  %19 = icmp sgt i64 %15, %18
  br i1 %19, label %20, label %24

20:                                               ; preds = %14
  %21 = load i64, ptr %5, align 8, !tbaa !26
  %22 = load i64, ptr %7, align 8, !tbaa !26
  %23 = sub i64 %21, %22
  br label %26

24:                                               ; preds = %14
  %25 = load i64, ptr %7, align 8, !tbaa !26
  br label %26

26:                                               ; preds = %24, %20
  %27 = phi i64 [ %23, %20 ], [ %25, %24 ]
  store i64 %27, ptr %8, align 8, !tbaa !26
  %28 = load ptr, ptr %4, align 8, !tbaa !161
  %29 = load i64, ptr %7, align 8, !tbaa !26
  %30 = getelementptr i8, ptr %28, i64 %29
  %31 = load ptr, ptr %4, align 8, !tbaa !161
  %32 = load i64, ptr %8, align 8, !tbaa !26
  call void @llvm.memcpy.p0.p0.i64(ptr align 1 %30, ptr align 1 %31, i64 %32, i1 false)
  %33 = load i64, ptr %8, align 8, !tbaa !26
  %34 = load i64, ptr %7, align 8, !tbaa !26
  %35 = add i64 %34, %33
  store i64 %35, ptr %7, align 8, !tbaa !26
  call void @llvm.lifetime.end.p0(i64 8, ptr %8) #8
  br label %10, !llvm.loop !169

36:                                               ; preds = %10
  call void @llvm.lifetime.end.p0(i64 8, ptr %7) #8
  ret void
}

; Function Attrs: inlinehint nounwind uwtable
define internal void @_Py_RefcntAdd(ptr noundef %0, i64 noundef %1) #2 {
  %3 = alloca ptr, align 8
  %4 = alloca i64, align 8
  store ptr %0, ptr %3, align 8, !tbaa !36
  store i64 %1, ptr %4, align 8, !tbaa !26
  %5 = load ptr, ptr %3, align 8, !tbaa !36
  %6 = call i32 @_Py_IsImmortal(ptr noundef %5)
  %7 = icmp ne i32 %6, 0
  br i1 %7, label %8, label %9

8:                                                ; preds = %2
  br label %17

9:                                                ; preds = %2
  %10 = load i64, ptr %4, align 8, !tbaa !26
  %11 = trunc i64 %10 to i32
  %12 = load ptr, ptr %3, align 8, !tbaa !36
  %13 = getelementptr inbounds nuw %struct._object, ptr %12, i32 0, i32 0
  %14 = getelementptr inbounds nuw %struct.anon, ptr %13, i32 0, i32 0
  %15 = load i32, ptr %14, align 8, !tbaa !37
  %16 = add i32 %15, %11
  store i32 %16, ptr %14, align 8, !tbaa !37
  br label %17

17:                                               ; preds = %9, %8
  ret void
}

; Function Attrs: nounwind uwtable
define internal i32 @list_resize(ptr noundef %0, i64 noundef %1) #0 {
  %3 = alloca i32, align 4
  %4 = alloca ptr, align 8
  %5 = alloca i64, align 8
  %6 = alloca i64, align 8
  %7 = alloca i64, align 8
  %8 = alloca i64, align 8
  %9 = alloca i32, align 4
  %10 = alloca ptr, align 8
  store ptr %0, ptr %4, align 8, !tbaa !27
  store i64 %1, ptr %5, align 8, !tbaa !26
  call void @llvm.lifetime.start.p0(i64 8, ptr %6) #8
  call void @llvm.lifetime.start.p0(i64 8, ptr %7) #8
  call void @llvm.lifetime.start.p0(i64 8, ptr %8) #8
  %11 = load ptr, ptr %4, align 8, !tbaa !27
  %12 = getelementptr inbounds nuw %struct.PyListObject, ptr %11, i32 0, i32 2
  %13 = load i64, ptr %12, align 8, !tbaa !33
  store i64 %13, ptr %8, align 8, !tbaa !26
  %14 = load i64, ptr %8, align 8, !tbaa !26
  %15 = load i64, ptr %5, align 8, !tbaa !26
  %16 = icmp sge i64 %14, %15
  br i1 %16, label %17, label %25

17:                                               ; preds = %2
  %18 = load i64, ptr %5, align 8, !tbaa !26
  %19 = load i64, ptr %8, align 8, !tbaa !26
  %20 = ashr i64 %19, 1
  %21 = icmp sge i64 %18, %20
  br i1 %21, label %22, label %25

22:                                               ; preds = %17
  %23 = load ptr, ptr %4, align 8, !tbaa !27
  %24 = load i64, ptr %5, align 8, !tbaa !26
  call void @Py_SET_SIZE(ptr noundef %23, i64 noundef %24)
  store i32 0, ptr %3, align 4
  store i32 1, ptr %9, align 4
  br label %76

25:                                               ; preds = %17, %2
  %26 = load i64, ptr %5, align 8, !tbaa !26
  %27 = load i64, ptr %5, align 8, !tbaa !26
  %28 = ashr i64 %27, 3
  %29 = add i64 %26, %28
  %30 = add i64 %29, 6
  %31 = and i64 %30, -4
  store i64 %31, ptr %6, align 8, !tbaa !26
  %32 = load i64, ptr %5, align 8, !tbaa !26
  %33 = load ptr, ptr %4, align 8, !tbaa !27
  %34 = call i64 @Py_SIZE(ptr noundef %33)
  %35 = sub i64 %32, %34
  %36 = load i64, ptr %6, align 8, !tbaa !26
  %37 = load i64, ptr %5, align 8, !tbaa !26
  %38 = sub i64 %36, %37
  %39 = icmp sgt i64 %35, %38
  br i1 %39, label %40, label %44

40:                                               ; preds = %25
  %41 = load i64, ptr %5, align 8, !tbaa !26
  %42 = add i64 %41, 3
  %43 = and i64 %42, -4
  store i64 %43, ptr %6, align 8, !tbaa !26
  br label %44

44:                                               ; preds = %40, %25
  %45 = load i64, ptr %5, align 8, !tbaa !26
  %46 = icmp eq i64 %45, 0
  br i1 %46, label %47, label %48

47:                                               ; preds = %44
  store i64 0, ptr %6, align 8, !tbaa !26
  br label %48

48:                                               ; preds = %47, %44
  %49 = load ptr, ptr %4, align 8, !tbaa !27
  call void @ensure_shared_on_resize(ptr noundef %49)
  call void @llvm.lifetime.start.p0(i64 8, ptr %10) #8
  %50 = load i64, ptr %6, align 8, !tbaa !26
  %51 = icmp ule i64 %50, 1152921504606846975
  br i1 %51, label %52, label %60

52:                                               ; preds = %48
  %53 = load i64, ptr %6, align 8, !tbaa !26
  %54 = mul i64 %53, 8
  store i64 %54, ptr %7, align 8, !tbaa !26
  %55 = load ptr, ptr %4, align 8, !tbaa !27
  %56 = getelementptr inbounds nuw %struct.PyListObject, ptr %55, i32 0, i32 1
  %57 = load ptr, ptr %56, align 8, !tbaa !28
  %58 = load i64, ptr %7, align 8, !tbaa !26
  %59 = call ptr @PyMem_Realloc(ptr noundef %57, i64 noundef %58)
  store ptr %59, ptr %10, align 8, !tbaa !119
  br label %61

60:                                               ; preds = %48
  store ptr null, ptr %10, align 8, !tbaa !119
  br label %61

61:                                               ; preds = %60, %52
  %62 = load ptr, ptr %10, align 8, !tbaa !119
  %63 = icmp eq ptr %62, null
  br i1 %63, label %64, label %66

64:                                               ; preds = %61
  %65 = call ptr @PyErr_NoMemory()
  store i32 -1, ptr %3, align 4
  store i32 1, ptr %9, align 4
  br label %75

66:                                               ; preds = %61
  %67 = load ptr, ptr %10, align 8, !tbaa !119
  %68 = load ptr, ptr %4, align 8, !tbaa !27
  %69 = getelementptr inbounds nuw %struct.PyListObject, ptr %68, i32 0, i32 1
  store ptr %67, ptr %69, align 8, !tbaa !28
  %70 = load ptr, ptr %4, align 8, !tbaa !27
  %71 = load i64, ptr %5, align 8, !tbaa !26
  call void @Py_SET_SIZE(ptr noundef %70, i64 noundef %71)
  %72 = load i64, ptr %6, align 8, !tbaa !26
  %73 = load ptr, ptr %4, align 8, !tbaa !27
  %74 = getelementptr inbounds nuw %struct.PyListObject, ptr %73, i32 0, i32 2
  store i64 %72, ptr %74, align 8, !tbaa !33
  store i32 0, ptr %3, align 4
  store i32 1, ptr %9, align 4
  br label %75

75:                                               ; preds = %66, %64
  call void @llvm.lifetime.end.p0(i64 8, ptr %10) #8
  br label %76

76:                                               ; preds = %75, %22
  call void @llvm.lifetime.end.p0(i64 8, ptr %8) #8
  call void @llvm.lifetime.end.p0(i64 8, ptr %7) #8
  call void @llvm.lifetime.end.p0(i64 8, ptr %6) #8
  %77 = load i32, ptr %3, align 4
  ret i32 %77
}

; Function Attrs: nounwind uwtable
define internal void @list_clear(ptr noundef %0) #0 {
  %2 = alloca ptr, align 8
  store ptr %0, ptr %2, align 8, !tbaa !27
  %3 = load ptr, ptr %2, align 8, !tbaa !27
  call void @list_clear_impl(ptr noundef %3, i1 noundef zeroext true)
  ret void
}

; Function Attrs: inlinehint nounwind uwtable
define internal i64 @PyList_GET_SIZE(ptr noundef %0) #2 {
  %2 = alloca ptr, align 8
  %3 = alloca ptr, align 8
  store ptr %0, ptr %2, align 8, !tbaa !36
  call void @llvm.lifetime.start.p0(i64 8, ptr %3) #8
  %4 = load ptr, ptr %2, align 8, !tbaa !36
  store ptr %4, ptr %3, align 8, !tbaa !27
  %5 = load ptr, ptr %3, align 8, !tbaa !27
  %6 = call i64 @Py_SIZE(ptr noundef %5)
  call void @llvm.lifetime.end.p0(i64 8, ptr %3) #8
  ret i64 %6
}

; Function Attrs: nounwind uwtable
define internal i32 @list_inplace_repeat_lock_held(ptr noundef %0, i64 noundef %1) #0 {
  %3 = alloca i32, align 4
  %4 = alloca ptr, align 8
  %5 = alloca i64, align 8
  %6 = alloca i64, align 8
  %7 = alloca i32, align 4
  %8 = alloca i64, align 8
  %9 = alloca ptr, align 8
  %10 = alloca i64, align 8
  store ptr %0, ptr %4, align 8, !tbaa !27
  store i64 %1, ptr %5, align 8, !tbaa !26
  call void @llvm.lifetime.start.p0(i64 8, ptr %6) #8
  %11 = load ptr, ptr %4, align 8, !tbaa !27
  %12 = call i64 @PyList_GET_SIZE(ptr noundef %11)
  store i64 %12, ptr %6, align 8, !tbaa !26
  %13 = load i64, ptr %6, align 8, !tbaa !26
  %14 = icmp eq i64 %13, 0
  br i1 %14, label %18, label %15

15:                                               ; preds = %2
  %16 = load i64, ptr %5, align 8, !tbaa !26
  %17 = icmp eq i64 %16, 1
  br i1 %17, label %18, label %19

18:                                               ; preds = %15, %2
  store i32 0, ptr %3, align 4
  store i32 1, ptr %7, align 4
  br label %66

19:                                               ; preds = %15
  %20 = load i64, ptr %5, align 8, !tbaa !26
  %21 = icmp slt i64 %20, 1
  br i1 %21, label %22, label %24

22:                                               ; preds = %19
  %23 = load ptr, ptr %4, align 8, !tbaa !27
  call void @list_clear(ptr noundef %23)
  store i32 0, ptr %3, align 4
  store i32 1, ptr %7, align 4
  br label %66

24:                                               ; preds = %19
  %25 = load i64, ptr %6, align 8, !tbaa !26
  %26 = load i64, ptr %5, align 8, !tbaa !26
  %27 = sdiv i64 9223372036854775807, %26
  %28 = icmp sgt i64 %25, %27
  br i1 %28, label %29, label %31

29:                                               ; preds = %24
  %30 = call ptr @PyErr_NoMemory()
  store i32 -1, ptr %3, align 4
  store i32 1, ptr %7, align 4
  br label %66

31:                                               ; preds = %24
  call void @llvm.lifetime.start.p0(i64 8, ptr %8) #8
  %32 = load i64, ptr %6, align 8, !tbaa !26
  %33 = load i64, ptr %5, align 8, !tbaa !26
  %34 = mul i64 %32, %33
  store i64 %34, ptr %8, align 8, !tbaa !26
  %35 = load ptr, ptr %4, align 8, !tbaa !27
  %36 = load i64, ptr %8, align 8, !tbaa !26
  %37 = call i32 @list_resize(ptr noundef %35, i64 noundef %36)
  %38 = icmp slt i32 %37, 0
  br i1 %38, label %39, label %40

39:                                               ; preds = %31
  store i32 -1, ptr %3, align 4
  store i32 1, ptr %7, align 4
  br label %65

40:                                               ; preds = %31
  call void @llvm.lifetime.start.p0(i64 8, ptr %9) #8
  %41 = load ptr, ptr %4, align 8, !tbaa !27
  %42 = getelementptr inbounds nuw %struct.PyListObject, ptr %41, i32 0, i32 1
  %43 = load ptr, ptr %42, align 8, !tbaa !28
  store ptr %43, ptr %9, align 8, !tbaa !119
  call void @llvm.lifetime.start.p0(i64 8, ptr %10) #8
  store i64 0, ptr %10, align 8, !tbaa !26
  br label %44

44:                                               ; preds = %56, %40
  %45 = load i64, ptr %10, align 8, !tbaa !26
  %46 = load i64, ptr %6, align 8, !tbaa !26
  %47 = icmp slt i64 %45, %46
  br i1 %47, label %49, label %48

48:                                               ; preds = %44
  store i32 2, ptr %7, align 4
  call void @llvm.lifetime.end.p0(i64 8, ptr %10) #8
  br label %59

49:                                               ; preds = %44
  %50 = load ptr, ptr %9, align 8, !tbaa !119
  %51 = load i64, ptr %10, align 8, !tbaa !26
  %52 = getelementptr ptr, ptr %50, i64 %51
  %53 = load ptr, ptr %52, align 8, !tbaa !36
  %54 = load i64, ptr %5, align 8, !tbaa !26
  %55 = sub i64 %54, 1
  call void @_Py_RefcntAdd(ptr noundef %53, i64 noundef %55)
  br label %56

56:                                               ; preds = %49
  %57 = load i64, ptr %10, align 8, !tbaa !26
  %58 = add i64 %57, 1
  store i64 %58, ptr %10, align 8, !tbaa !26
  br label %44, !llvm.loop !164

59:                                               ; preds = %48
  %60 = load ptr, ptr %9, align 8, !tbaa !119
  %61 = load i64, ptr %8, align 8, !tbaa !26
  %62 = mul i64 8, %61
  %63 = load i64, ptr %6, align 8, !tbaa !26
  %64 = mul i64 8, %63
  call void @_Py_memory_repeat(ptr noundef %60, i64 noundef %62, i64 noundef %64)
  store i32 0, ptr %3, align 4
  store i32 1, ptr %7, align 4
  call void @llvm.lifetime.end.p0(i64 8, ptr %9) #8
  br label %65

65:                                               ; preds = %59, %39
  call void @llvm.lifetime.end.p0(i64 8, ptr %8) #8
  br label %66

66:                                               ; preds = %65, %29, %22, %18
  call void @llvm.lifetime.end.p0(i64 8, ptr %6) #8
  %67 = load i32, ptr %3, align 4
  ret i32 %67
}