; Function Attrs: nounwind uwtable
define internal fastcc range(i32 -1, 1) i32 @list_inplace_repeat_lock_held(ptr noundef captures(none) %0, i64 noundef %1) unnamed_addr #0 {
  %3 = getelementptr i8, ptr %0, i64 16
  %.val = load i64, ptr %3, align 8, !tbaa !33
  %4 = icmp eq i64 %.val, 0
  %5 = icmp eq i64 %1, 1
  %or.cond = or i1 %5, %4
  br i1 %or.cond, label %list_clear.exit, label %6

6:                                                ; preds = %2
  %7 = icmp slt i64 %1, 1
  br i1 %7, label %8, label %26

8:                                                ; preds = %6
  %9 = getelementptr inbounds nuw i8, ptr %0, i64 24
  %10 = load ptr, ptr %9, align 8, !tbaa !27
  %11 = icmp eq ptr %10, null
  br i1 %11, label %list_clear.exit, label %12

12:                                               ; preds = %8
  %13 = add i64 %.val, -1
  %14 = icmp sgt i64 %13, -1
  tail call void @llvm.memset.p0.i64(ptr noundef nonnull align 8 dereferenceable(24) %3, i8 0, i64 24, i1 false)
  br i1 %14, label %.lr.ph.i.i, label %._crit_edge.i.i

.lr.ph.i.i:                                       ; preds = %12, %Py_XDECREF.exit.i.i
  %15 = phi i64 [ %24, %Py_XDECREF.exit.i.i ], [ %13, %12 ]
  %16 = getelementptr ptr, ptr %10, i64 %15
  %17 = load ptr, ptr %16, align 8, !tbaa !112
  %.not.i.i.i = icmp eq ptr %17, null
  br i1 %.not.i.i.i, label %Py_XDECREF.exit.i.i, label %18

18:                                               ; preds = %.lr.ph.i.i
  %19 = load i32, ptr %17, align 8, !tbaa !32
  %.not.i.i.i.i = icmp sgt i32 %19, -1
  br i1 %.not.i.i.i.i, label %20, label %Py_XDECREF.exit.i.i

20:                                               ; preds = %18
  %21 = add nsw i32 %19, -1
  store i32 %21, ptr %17, align 8, !tbaa !32
  %22 = icmp eq i32 %21, 0
  br i1 %22, label %23, label %Py_XDECREF.exit.i.i

23:                                               ; preds = %20
  tail call void @_Py_Dealloc(ptr noundef nonnull %17) #12
  br label %Py_XDECREF.exit.i.i

Py_XDECREF.exit.i.i:                              ; preds = %23, %20, %18, %.lr.ph.i.i
  %24 = add nsw i64 %15, -1
  %25 = icmp sgt i64 %15, 0
  br i1 %25, label %.lr.ph.i.i, label %._crit_edge.i.i, !llvm.loop !122

._crit_edge.i.i:                                  ; preds = %Py_XDECREF.exit.i.i, %12
  tail call void @PyMem_Free(ptr noundef nonnull %10) #12
  br label %list_clear.exit

26:                                               ; preds = %6
  %27 = udiv i64 9223372036854775807, %1
  %28 = icmp sgt i64 %.val, %27
  br i1 %28, label %29, label %31

29:                                               ; preds = %26
  %30 = tail call ptr @PyErr_NoMemory() #12
  br label %list_clear.exit

31:                                               ; preds = %26
  %32 = mul i64 %.val, %1
  %33 = getelementptr inbounds nuw i8, ptr %0, i64 32
  %34 = load i64, ptr %33, align 8, !tbaa !34
  %.not.i = icmp slt i64 %34, %32
  %35 = ashr i64 %34, 1
  %.not32.i = icmp slt i64 %32, %35
  %or.cond.i = or i1 %.not.i, %.not32.i
  br i1 %or.cond.i, label %37, label %36

36:                                               ; preds = %31
  store i64 %32, ptr %3, align 8, !tbaa !33
  %.phi.trans.insert = getelementptr inbounds nuw i8, ptr %0, i64 24
  %.pre = load ptr, ptr %.phi.trans.insert, align 8, !tbaa !27
  br label %57

37:                                               ; preds = %31
  %38 = ashr i64 %32, 3
  %39 = add i64 %32, 6
  %40 = add i64 %39, %38
  %41 = and i64 %40, -4
  %42 = sub i64 %32, %.val
  %43 = sub i64 %41, %32
  %44 = icmp sgt i64 %42, %43
  %45 = add i64 %32, 3
  %46 = and i64 %45, -4
  %.028.i = select i1 %44, i64 %46, i64 %41
  %47 = icmp eq i64 %32, 0
  %.129.i = select i1 %47, i64 0, i64 %.028.i
  %48 = icmp ult i64 %.129.i, 1152921504606846976
  br i1 %48, label %49, label %list_resize.exit

49:                                               ; preds = %37
  %50 = shl nuw nsw i64 %.129.i, 3
  %51 = getelementptr inbounds nuw i8, ptr %0, i64 24
  %52 = load ptr, ptr %51, align 8, !tbaa !27
  %53 = tail call ptr @PyMem_Realloc(ptr noundef %52, i64 noundef %50) #12
  %54 = icmp eq ptr %53, null
  br i1 %54, label %list_resize.exit, label %55

55:                                               ; preds = %49
  store ptr %53, ptr %51, align 8, !tbaa !27
  store i64 %32, ptr %3, align 8, !tbaa !33
  store i64 %.129.i, ptr %33, align 8, !tbaa !34
  br label %57

list_resize.exit:                                 ; preds = %37, %49
  %56 = tail call ptr @PyErr_NoMemory() #12
  br label %list_clear.exit

57:                                               ; preds = %36, %55
  %58 = phi ptr [ %.pre, %36 ], [ %53, %55 ]
  %59 = icmp sgt i64 %.val, 0
  br i1 %59, label %.lr.ph, label %._crit_edge

.lr.ph:                                           ; preds = %57
  %60 = trunc i64 %1 to i32
  %61 = add i32 %60, -1
  br label %70

._crit_edge:                                      ; preds = %_Py_RefcntAdd.exit, %57
  %62 = shl i64 %32, 3
  %63 = shl i64 %.val, 3
  %64 = icmp slt i64 %63, %62
  br i1 %64, label %.lr.ph.i, label %list_clear.exit

.lr.ph.i:                                         ; preds = %._crit_edge, %.lr.ph.i
  %.015.i = phi i64 [ %68, %.lr.ph.i ], [ %63, %._crit_edge ]
  %65 = sub i64 %62, %.015.i
  %66 = tail call i64 @llvm.smin.i64(i64 %.015.i, i64 %65)
  %67 = getelementptr i8, ptr %58, i64 %.015.i
  tail call void @llvm.memcpy.p0.p0.i64(ptr align 1 %67, ptr align 1 %58, i64 %66, i1 false)
  %68 = add i64 %66, %.015.i
  %69 = icmp slt i64 %68, %62
  br i1 %69, label %.lr.ph.i, label %list_clear.exit, !llvm.loop !175

70:                                               ; preds = %.lr.ph, %_Py_RefcntAdd.exit
  %.027 = phi i64 [ 0, %.lr.ph ], [ %76, %_Py_RefcntAdd.exit ]
  %71 = getelementptr ptr, ptr %58, i64 %.027
  %72 = load ptr, ptr %71, align 8, !tbaa !112
  %73 = load i32, ptr %72, align 8, !tbaa !32
  %.not.i25 = icmp sgt i32 %73, -1
  br i1 %.not.i25, label %74, label %_Py_RefcntAdd.exit

74:                                               ; preds = %70
  %75 = add i32 %61, %73
  store i32 %75, ptr %72, align 8, !tbaa !32
  br label %_Py_RefcntAdd.exit

_Py_RefcntAdd.exit:                               ; preds = %70, %74
  %76 = add nuw nsw i64 %.027, 1
  %exitcond.not = icmp eq i64 %76, %.val
  br i1 %exitcond.not, label %._crit_edge, label %70, !llvm.loop !176

list_clear.exit:                                  ; preds = %.lr.ph.i, %._crit_edge, %list_resize.exit, %._crit_edge.i.i, %8, %2, %29
  %.022 = phi i32 [ -1, %29 ], [ 0, %2 ], [ -1, %list_resize.exit ], [ 0, %8 ], [ 0, %._crit_edge.i.i ], [ 0, %._crit_edge ], [ 0, %.lr.ph.i ]
  ret i32 %.022
}